target datalayout = "e-m:e-p270:32:32-p271:32:32-p272:64:64-i64:64-i128:128-f80:128-n8:16:32:64-S128"
target triple = "x86_64-pc-linux-gnu"

%"class.lean::expr" = type { %"class.lean::object_ref" }
%"class.lean::object_ref" = type { ptr }
%"class.lean::struct_cases_on_fn" = type <{ %"class.lean::elab_environment", %"class.lean::type_checker::state", %"class.lean::local_ctx", %"class.lean::rb_tree", %"class.lean::rb_map", %"class.lean::rb_tree", %"class.lean::name", i32, [4 x i8] }>
%"class.lean::elab_environment" = type { %"class.lean::object_ref" }
%"class.lean::type_checker::state" = type { %"class.lean::environment", %"class.lean::name_generator", [2 x %"class.std::unordered_map"], %"class.std::unordered_map", %"class.std::unordered_map", %"class.lean::equiv_manager", %"class.std::unordered_set" }
%"class.lean::environment" = type { %"class.lean::object_ref" }
%"class.lean::name_generator" = type <{ %"class.lean::name", i32, [4 x i8] }>
%"class.std::unordered_map" = type { %"class.std::_Hashtable" }
%"class.std::_Hashtable" = type { ptr, i64, %"struct.std::__detail::_Hash_node_base", i64, %"struct.std::__detail::_Prime_rehash_policy", ptr }
%"struct.std::__detail::_Hash_node_base" = type { ptr }
%"struct.std::__detail::_Prime_rehash_policy" = type { float, i64 }
%"class.lean::equiv_manager" = type <{ %"class.std::vector", %"class.std::unordered_map.5", i8, [7 x i8] }>
%"class.std::vector" = type { %"struct.std::_Vector_base" }
%"struct.std::_Vector_base" = type { %"struct.std::_Vector_base<lean::equiv_manager::node, std::allocator<lean::equiv_manager::node>>::_Vector_impl" }
%"struct.std::_Vector_base<lean::equiv_manager::node, std::allocator<lean::equiv_manager::node>>::_Vector_impl" = type { %"struct.std::_Vector_base<lean::equiv_manager::node, std::allocator<lean::equiv_manager::node>>::_Vector_impl_data" }
%"struct.std::_Vector_base<lean::equiv_manager::node, std::allocator<lean::equiv_manager::node>>::_Vector_impl_data" = type { ptr, ptr, ptr }
%"class.std::unordered_map.5" = type { %"class.std::_Hashtable.6" }
%"class.std::_Hashtable.6" = type { ptr, i64, %"struct.std::__detail::_Hash_node_base", i64, %"struct.std::__detail::_Prime_rehash_policy", ptr }
%"class.std::unordered_set" = type { %"class.std::_Hashtable.19" }
%"class.std::_Hashtable.19" = type { ptr, i64, %"struct.std::__detail::_Hash_node_base", i64, %"struct.std::__detail::_Prime_rehash_policy", ptr }
%"class.lean::local_ctx" = type { %"class.lean::object_ref" }
%"class.lean::rb_map" = type { %"class.lean::rb_tree.34" }
%"class.lean::rb_tree.34" = type { %"struct.lean::rb_tree<std::pair<lean::name, lean::name>, lean::rb_map<lean::name, lean::name, lean::name_quick_cmp>::entry_cmp>::node" }
%"struct.lean::rb_tree<std::pair<lean::name, lean::name>, lean::rb_map<lean::name, lean::name, lean::name_quick_cmp>::entry_cmp>::node" = type { ptr }
%"class.lean::rb_tree" = type { %"struct.lean::rb_tree<lean::name, lean::name_quick_cmp>::node" }
%"struct.lean::rb_tree<lean::name, lean::name_quick_cmp>::node" = type { ptr }
%"class.lean::name" = type { %"class.lean::object_ref" }

; Function Attrs: mustprogress uwtable
define linkonce_odr hidden void @_ZN4lean18struct_cases_on_fnclERKNS_4exprE(ptr dead_on_unwind noalias writable sret(%"class.lean::expr") align 8 %0, ptr noundef nonnull align 8 dereferenceable(444) %1, ptr noundef nonnull align 8 dereferenceable(8) %2) #0 comdat align 2 {
  %4 = alloca ptr, align 8
  %5 = alloca ptr, align 8
  %6 = alloca ptr, align 8
  store ptr %0, ptr %4, align 8
  store ptr %1, ptr %5, align 8, !tbaa !10
  store ptr %2, ptr %6, align 8, !tbaa !8
  %7 = load ptr, ptr %5, align 8
  %8 = load ptr, ptr %6, align 8, !tbaa !8
  call void @_ZN4lean18struct_cases_on_fn5visitERKNS_4exprE(ptr dead_on_unwind writable sret(%"class.lean::expr") align 8 %0, ptr noundef nonnull align 8 dereferenceable(444) %7, ptr noundef nonnull align 8 dereferenceable(8) %8)
  ret void
}

; Function Attrs: mustprogress uwtable
define hidden void @_ZN4lean15struct_cases_onERKNS_16elab_environmentERKNS_4exprE(ptr dead_on_unwind noalias writable sret(%"class.lean::expr") align 8 %0, ptr noundef nonnull align 8 dereferenceable(8) %1, ptr noundef nonnull align 8 dereferenceable(8) %2) #0 personality ptr @__gxx_personality_v0 {
  %4 = alloca ptr, align 8
  %5 = alloca ptr, align 8
  %6 = alloca ptr, align 8
  %7 = alloca %"class.lean::struct_cases_on_fn", align 8
  %8 = alloca ptr, align 8
  %9 = alloca i32, align 4
  store ptr %0, ptr %4, align 8
  store ptr %1, ptr %5, align 8, !tbaa !3
  store ptr %2, ptr %6, align 8, !tbaa !8
  call void @llvm.lifetime.start.p0(i64 448, ptr %7) #14
  %10 = load ptr, ptr %5, align 8, !tbaa !3
  call void @_ZN4lean18struct_cases_on_fnC2ERKNS_16elab_environmentE(ptr noundef nonnull align 8 dereferenceable(444) %7, ptr noundef nonnull align 8 dereferenceable(8) %10)
  %11 = load ptr, ptr %6, align 8, !tbaa !8
  invoke void @_ZN4lean18struct_cases_on_fnclERKNS_4exprE(ptr dead_on_unwind writable sret(%"class.lean::expr") align 8 %0, ptr noundef nonnull align 8 dereferenceable(444) %7, ptr noundef nonnull align 8 dereferenceable(8) %11)
          to label %12 unwind label %13

12:                                               ; preds = %3
  call void @_ZN4lean18struct_cases_on_fnD2Ev(ptr noundef nonnull align 8 dereferenceable(444) %7) #14
  call void @llvm.lifetime.end.p0(i64 448, ptr %7) #14
  ret void

13:                                               ; preds = %3
  %14 = landingpad { ptr, i32 }
          cleanup
  %15 = extractvalue { ptr, i32 } %14, 0
  store ptr %15, ptr %8, align 8
  %16 = extractvalue { ptr, i32 } %14, 1
  store i32 %16, ptr %9, align 4
  call void @_ZN4lean18struct_cases_on_fnD2Ev(ptr noundef nonnull align 8 dereferenceable(444) %7) #14
  call void @llvm.lifetime.end.p0(i64 448, ptr %7) #14
  br label %17

17:                                               ; preds = %13
  %18 = load ptr, ptr %8, align 8
  %19 = load i32, ptr %9, align 4
  %20 = insertvalue { ptr, i32 } poison, ptr %18, 0
  %21 = insertvalue { ptr, i32 } %20, i32 %19, 1
  resume { ptr, i32 } %21
}