; Function Attrs: mustprogress uwtable
define hidden void @_ZN4lean15struct_cases_onERKNS_16elab_environmentERKNS_4exprE(ptr dead_on_unwind noalias writable sret(%"class.lean::expr") align 8 %0, ptr noundef nonnull align 8 dereferenceable(8) %1, ptr noundef nonnull align 8 dereferenceable(8) %2) local_unnamed_addr #0 personality ptr @__gxx_personality_v0 {
  %4 = alloca %"class.lean::struct_cases_on_fn", align 8
  call void @llvm.lifetime.start.p0(i64 448, ptr nonnull %4) #14
  call void @_ZN4lean18struct_cases_on_fnC2ERKNS_16elab_environmentE(ptr noundef nonnull align 8 dereferenceable(444) %4, ptr noundef nonnull align 8 dereferenceable(8) %1)
  invoke void @_ZN4lean18struct_cases_on_fn5visitERKNS_4exprE(ptr dead_on_unwind writable sret(%"class.lean::expr") align 8 %0, ptr noundef nonnull align 8 dereferenceable(444) %4, ptr noundef nonnull align 8 dereferenceable(8) %2)
          to label %_ZN4lean18struct_cases_on_fnclERKNS_4exprE.exit unwind label %5

_ZN4lean18struct_cases_on_fnclERKNS_4exprE.exit:  ; preds = %3
  call void @_ZN4lean18struct_cases_on_fnD2Ev(ptr noundef nonnull align 8 dereferenceable(444) %4) #14
  call void @llvm.lifetime.end.p0(i64 448, ptr nonnull %4) #14
  ret void

5:                                                ; preds = %3
  %6 = landingpad { ptr, i32 }
          cleanup
  call void @_ZN4lean18struct_cases_on_fnD2Ev(ptr noundef nonnull align 8 dereferenceable(444) %4) #14
  call void @llvm.lifetime.end.p0(i64 448, ptr nonnull %4) #14
  resume { ptr, i32 } %6
}